; ModuleID = '46/3217.c'
source_filename = "46/3217.c"
target datalayout = "e-m:e-p270:32:32-p271:32:32-p272:64:64-i64:64-f80:128-n8:16:32:64-S128"
target triple = "x86_64-pc-linux-gnu"

@.str = private unnamed_addr constant [7 x i8] c"%d %d\0A\00", align 1
@.str.1 = private unnamed_addr constant [3 x i8] c"%d\00", align 1
@.str.2 = private unnamed_addr constant [4 x i8] c"%d\0A\00", align 1

; Function Attrs: noinline nounwind uwtable
define dso_local i32 @main() #0 {
  %1 = alloca i32, align 4
  %2 = alloca [100 x [100 x i32]], align 16
  %3 = alloca i32, align 4
  %4 = alloca i32, align 4
  %5 = alloca i32, align 4
  %6 = alloca i32, align 4
  %7 = alloca i32, align 4
  %8 = alloca i32, align 4
  %9 = alloca i32, align 4
  %10 = alloca i32, align 4
  %11 = alloca i32, align 4
  store i32 0, i32* %1, align 4
  store i32 0, i32* %8, align 4
  store i32 -1, i32* %11, align 4
  %12 = call i32 (i8*, ...) @__isoc99_scanf(i8* getelementptr inbounds ([7 x i8], [7 x i8]* @.str, i64 0, i64 0), i32* %6, i32* %7)
  %13 = load i32, i32* %6, align 4
  store i32 %13, i32* %10, align 4
  %14 = load i32, i32* %7, align 4
  store i32 %14, i32* %9, align 4
  store i32 0, i32* %3, align 4
  br label %15

15:                                               ; preds = %45, %0
  %16 = load i32, i32* %3, align 4
  %17 = load i32, i32* %6, align 4
  %18 = icmp slt i32 %16, %17
  br i1 %18, label %19, label %48

19:                                               ; preds = %15
  store i32 0, i32* %4, align 4
  br label %20

20:                                               ; preds = %33, %19
  %21 = load i32, i32* %4, align 4
  %22 = load i32, i32* %7, align 4
  %23 = sub nsw i32 %22, 1
  %24 = icmp slt i32 %21, %23
  br i1 %24, label %25, label %36

25:                                               ; preds = %20
  %26 = load i32, i32* %3, align 4
  %27 = sext i32 %26 to i64
  %28 = getelementptr inbounds [100 x [100 x i32]], [100 x [100 x i32]]* %2, i64 0, i64 %27
  %29 = load i32, i32* %4, align 4
  %30 = sext i32 %29 to i64
  %31 = getelementptr inbounds [100 x i32], [100 x i32]* %28, i64 0, i64 %30
  %32 = call i32 (i8*, ...) @__isoc99_scanf(i8* getelementptr inbounds ([3 x i8], [3 x i8]* @.str.1, i64 0, i64 0), i32* %31)
  br label %33

33:                                               ; preds = %25
  %34 = load i32, i32* %4, align 4
  %35 = add nsw i32 %34, 1
  store i32 %35, i32* %4, align 4
  br label %20

36:                                               ; preds = %20
  %37 = load i32, i32* %3, align 4
  %38 = sext i32 %37 to i64
  %39 = getelementptr inbounds [100 x [100 x i32]], [100 x [100 x i32]]* %2, i64 0, i64 %38
  %40 = load i32, i32* %7, align 4
  %41 = sub nsw i32 %40, 1
  %42 = sext i32 %41 to i64
  %43 = getelementptr inbounds [100 x i32], [100 x i32]* %39, i64 0, i64 %42
  %44 = call i32 (i8*, ...) @__isoc99_scanf(i8* getelementptr inbounds ([4 x i8], [4 x i8]* @.str.2, i64 0, i64 0), i32* %43)
  br label %45

45:                                               ; preds = %36
  %46 = load i32, i32* %3, align 4
  %47 = add nsw i32 %46, 1
  store i32 %47, i32* %3, align 4
  br label %15

48:                                               ; preds = %15
  store i32 1, i32* %5, align 4
  br label %49

49:                                               ; preds = %185, %48
  %50 = load i32, i32* %5, align 4
  %51 = icmp slt i32 %50, 100000
  br i1 %51, label %52, label %188

52:                                               ; preds = %49
  %53 = load i32, i32* %11, align 4
  %54 = add nsw i32 %53, 1
  store i32 %54, i32* %11, align 4
  %55 = load i32, i32* %11, align 4
  store i32 %55, i32* %4, align 4
  br label %56

56:                                               ; preds = %73, %52
  %57 = load i32, i32* %4, align 4
  %58 = load i32, i32* %7, align 4
  %59 = load i32, i32* %11, align 4
  %60 = sub nsw i32 %58, %59
  %61 = icmp slt i32 %57, %60
  br i1 %61, label %62, label %76

62:                                               ; preds = %56
  %63 = load i32, i32* %11, align 4
  %64 = sext i32 %63 to i64
  %65 = getelementptr inbounds [100 x [100 x i32]], [100 x [100 x i32]]* %2, i64 0, i64 %64
  %66 = load i32, i32* %4, align 4
  %67 = sext i32 %66 to i64
  %68 = getelementptr inbounds [100 x i32], [100 x i32]* %65, i64 0, i64 %67
  %69 = load i32, i32* %68, align 4
  %70 = call i32 (i8*, ...) @printf(i8* getelementptr inbounds ([4 x i8], [4 x i8]* @.str.2, i64 0, i64 0), i32 %69)
  %71 = load i32, i32* %8, align 4
  %72 = add nsw i32 %71, 1
  store i32 %72, i32* %8, align 4
  br label %73

73:                                               ; preds = %62
  %74 = load i32, i32* %4, align 4
  %75 = add nsw i32 %74, 1
  store i32 %75, i32* %4, align 4
  br label %56

76:                                               ; preds = %56
  %77 = load i32, i32* %8, align 4
  %78 = load i32, i32* %9, align 4
  %79 = load i32, i32* %10, align 4
  %80 = mul nsw i32 %78, %79
  %81 = icmp eq i32 %77, %80
  br i1 %81, label %82, label %83

82:                                               ; preds = %76
  br label %188

83:                                               ; preds = %76
  %84 = load i32, i32* %11, align 4
  %85 = add nsw i32 %84, 1
  store i32 %85, i32* %3, align 4
  br label %86

86:                                               ; preds = %106, %83
  %87 = load i32, i32* %3, align 4
  %88 = load i32, i32* %6, align 4
  %89 = load i32, i32* %11, align 4
  %90 = sub nsw i32 %88, %89
  %91 = icmp slt i32 %87, %90
  br i1 %91, label %92, label %109

92:                                               ; preds = %86
  %93 = load i32, i32* %3, align 4
  %94 = sext i32 %93 to i64
  %95 = getelementptr inbounds [100 x [100 x i32]], [100 x [100 x i32]]* %2, i64 0, i64 %94
  %96 = load i32, i32* %7, align 4
  %97 = load i32, i32* %11, align 4
  %98 = sub nsw i32 %96, %97
  %99 = sub nsw i32 %98, 1
  %100 = sext i32 %99 to i64
  %101 = getelementptr inbounds [100 x i32], [100 x i32]* %95, i64 0, i64 %100
  %102 = load i32, i32* %101, align 4
  %103 = call i32 (i8*, ...) @printf(i8* getelementptr inbounds ([4 x i8], [4 x i8]* @.str.2, i64 0, i64 0), i32 %102)
  %104 = load i32, i32* %8, align 4
  %105 = add nsw i32 %104, 1
  store i32 %105, i32* %8, align 4
  br label %106

106:                                              ; preds = %92
  %107 = load i32, i32* %3, align 4
  %108 = add nsw i32 %107, 1
  store i32 %108, i32* %3, align 4
  br label %86

109:                                              ; preds = %86
  %110 = load i32, i32* %8, align 4
  %111 = load i32, i32* %9, align 4
  %112 = load i32, i32* %10, align 4
  %113 = mul nsw i32 %111, %112
  %114 = icmp eq i32 %110, %113
  br i1 %114, label %115, label %116

115:                                              ; preds = %109
  br label %188

116:                                              ; preds = %109
  %117 = load i32, i32* %11, align 4
  %118 = add nsw i32 2, %117
  store i32 %118, i32* %4, align 4
  br label %119

119:                                              ; preds = %142, %116
  %120 = load i32, i32* %4, align 4
  %121 = load i32, i32* %7, align 4
  %122 = add nsw i32 %121, 1
  %123 = load i32, i32* %11, align 4
  %124 = sub nsw i32 %122, %123
  %125 = icmp slt i32 %120, %124
  br i1 %125, label %126, label %145

126:                                              ; preds = %119
  %127 = load i32, i32* %6, align 4
  %128 = sub nsw i32 %127, 1
  %129 = load i32, i32* %11, align 4
  %130 = sub nsw i32 %128, %129
  %131 = sext i32 %130 to i64
  %132 = getelementptr inbounds [100 x [100 x i32]], [100 x [100 x i32]]* %2, i64 0, i64 %131
  %133 = load i32, i32* %7, align 4
  %134 = load i32, i32* %4, align 4
  %135 = sub nsw i32 %133, %134
  %136 = sext i32 %135 to i64
  %137 = getelementptr inbounds [100 x i32], [100 x i32]* %132, i64 0, i64 %136
  %138 = load i32, i32* %137, align 4
  %139 = call i32 (i8*, ...) @printf(i8* getelementptr inbounds ([4 x i8], [4 x i8]* @.str.2, i64 0, i64 0), i32 %138)
  %140 = load i32, i32* %8, align 4
  %141 = add nsw i32 %140, 1
  store i32 %141, i32* %8, align 4
  br label %142

142:                                              ; preds = %126
  %143 = load i32, i32* %4, align 4
  %144 = add nsw i32 %143, 1
  store i32 %144, i32* %4, align 4
  br label %119

145:                                              ; preds = %119
  %146 = load i32, i32* %8, align 4
  %147 = load i32, i32* %9, align 4
  %148 = load i32, i32* %10, align 4
  %149 = mul nsw i32 %147, %148
  %150 = icmp eq i32 %146, %149
  br i1 %150, label %151, label %152

151:                                              ; preds = %145
  br label %188

152:                                              ; preds = %145
  %153 = load i32, i32* %11, align 4
  %154 = add nsw i32 2, %153
  store i32 %154, i32* %3, align 4
  br label %155

155:                                              ; preds = %174, %152
  %156 = load i32, i32* %3, align 4
  %157 = load i32, i32* %6, align 4
  %158 = load i32, i32* %11, align 4
  %159 = sub nsw i32 %157, %158
  %160 = icmp slt i32 %156, %159
  br i1 %160, label %161, label %177

161:                                              ; preds = %155
  %162 = load i32, i32* %6, align 4
  %163 = load i32, i32* %3, align 4
  %164 = sub nsw i32 %162, %163
  %165 = sext i32 %164 to i64
  %166 = getelementptr inbounds [100 x [100 x i32]], [100 x [100 x i32]]* %2, i64 0, i64 %165
  %167 = load i32, i32* %11, align 4
  %168 = sext i32 %167 to i64
  %169 = getelementptr inbounds [100 x i32], [100 x i32]* %166, i64 0, i64 %168
  %170 = load i32, i32* %169, align 4
  %171 = call i32 (i8*, ...) @printf(i8* getelementptr inbounds ([4 x i8], [4 x i8]* @.str.2, i64 0, i64 0), i32 %170)
  %172 = load i32, i32* %8, align 4
  %173 = add nsw i32 %172, 1
  store i32 %173, i32* %8, align 4
  br label %174

174:                                              ; preds = %161
  %175 = load i32, i32* %3, align 4
  %176 = add nsw i32 %175, 1
  store i32 %176, i32* %3, align 4
  br label %155

177:                                              ; preds = %155
  %178 = load i32, i32* %8, align 4
  %179 = load i32, i32* %10, align 4
  %180 = load i32, i32* %9, align 4
  %181 = mul nsw i32 %179, %180
  %182 = icmp eq i32 %178, %181
  br i1 %182, label %183, label %184

183:                                              ; preds = %177
  br label %188

184:                                              ; preds = %177
  br label %185

185:                                              ; preds = %184
  %186 = load i32, i32* %5, align 4
  %187 = add nsw i32 %186, 1
  store i32 %187, i32* %5, align 4
  br label %49

188:                                              ; preds = %183, %151, %115, %82, %49
  ret i32 0
}

declare dso_local i32 @__isoc99_scanf(i8*, ...) #1

declare dso_local i32 @printf(i8*, ...) #1


!llvm.module.flags = !{!0}
!llvm.ident = !{!1}

!0 = !{i32 1, !"wchar_size", i32 4}
!1 = !{!"clang version 10.0.0-4ubuntu1 "}
